target datalayout = "e-m:e-p270:32:32-p271:32:32-p272:64:64-i64:64-i128:128-f80:128-n8:16:32:64-S128"
target triple = "x86_64-pc-linux-gnu"

; Function Attrs: nounwind uwtable
define dso_local ptr @lpShrinkToFit(ptr noundef %0) #0 {
  %2 = alloca ptr, align 8
  %3 = alloca ptr, align 8
  %4 = alloca i64, align 8
  %5 = alloca i32, align 4
  store ptr %0, ptr %3, align 8, !tbaa !5
  call void @llvm.lifetime.start.p0(i64 8, ptr %4) #10
  %6 = load ptr, ptr %3, align 8, !tbaa !5
  %7 = getelementptr inbounds i8, ptr %6, i64 0
  %8 = load i8, ptr %7, align 1, !tbaa !12
  %9 = zext i8 %8 to i32
  %10 = shl i32 %9, 0
  %11 = load ptr, ptr %3, align 8, !tbaa !5
  %12 = getelementptr inbounds i8, ptr %11, i64 1
  %13 = load i8, ptr %12, align 1, !tbaa !12
  %14 = zext i8 %13 to i32
  %15 = shl i32 %14, 8
  %16 = or i32 %10, %15
  %17 = load ptr, ptr %3, align 8, !tbaa !5
  %18 = getelementptr inbounds i8, ptr %17, i64 2
  %19 = load i8, ptr %18, align 1, !tbaa !12
  %20 = zext i8 %19 to i32
  %21 = shl i32 %20, 16
  %22 = or i32 %16, %21
  %23 = load ptr, ptr %3, align 8, !tbaa !5
  %24 = getelementptr inbounds i8, ptr %23, i64 3
  %25 = load i8, ptr %24, align 1, !tbaa !12
  %26 = zext i8 %25 to i32
  %27 = shl i32 %26, 24
  %28 = or i32 %22, %27
  %29 = zext i32 %28 to i64
  store i64 %29, ptr %4, align 8, !tbaa !10
  %30 = load i64, ptr %4, align 8, !tbaa !10
  %31 = load ptr, ptr %3, align 8, !tbaa !5
  %32 = call i64 @je_malloc_usable_size(ptr noundef %31) #10
  %33 = icmp ult i64 %30, %32
  br i1 %33, label %34, label %38

34:                                               ; preds = %1
  %35 = load ptr, ptr %3, align 8, !tbaa !5
  %36 = load i64, ptr %4, align 8, !tbaa !10
  %37 = call ptr @zrealloc_usable(ptr noundef %35, i64 noundef %36, ptr noundef null)
  store ptr %37, ptr %2, align 8
  store i32 1, ptr %5, align 4
  br label %40

38:                                               ; preds = %1
  %39 = load ptr, ptr %3, align 8, !tbaa !5
  store ptr %39, ptr %2, align 8
  store i32 1, ptr %5, align 4
  br label %40

40:                                               ; preds = %38, %34
  call void @llvm.lifetime.end.p0(i64 8, ptr %4) #10
  %41 = load ptr, ptr %2, align 8
  ret ptr %41
}

; Function Attrs: nounwind uwtable
define dso_local ptr @lpDeleteRange(ptr noundef %0, i64 noundef %1, i64 noundef %2) #0 {
  %4 = alloca ptr, align 8
  %5 = alloca ptr, align 8
  %6 = alloca i64, align 8
  %7 = alloca i64, align 8
  %8 = alloca ptr, align 8
  %9 = alloca i32, align 4
  %10 = alloca i32, align 4
  store ptr %0, ptr %5, align 8, !tbaa !5
  store i64 %1, ptr %6, align 8, !tbaa !10
  store i64 %2, ptr %7, align 8, !tbaa !10
  call void @llvm.lifetime.start.p0(i64 8, ptr %8) #10
  call void @llvm.lifetime.start.p0(i64 4, ptr %9) #10
  %11 = load ptr, ptr %5, align 8, !tbaa !5
  %12 = getelementptr inbounds i8, ptr %11, i64 4
  %13 = load i8, ptr %12, align 1, !tbaa !12
  %14 = zext i8 %13 to i32
  %15 = shl i32 %14, 0
  %16 = load ptr, ptr %5, align 8, !tbaa !5
  %17 = getelementptr inbounds i8, ptr %16, i64 5
  %18 = load i8, ptr %17, align 1, !tbaa !12
  %19 = zext i8 %18 to i32
  %20 = shl i32 %19, 8
  %21 = or i32 %15, %20
  store i32 %21, ptr %9, align 4, !tbaa !15
  %22 = load i64, ptr %7, align 8, !tbaa !10
  %23 = icmp eq i64 %22, 0
  br i1 %23, label %24, label %26

24:                                               ; preds = %3
  %25 = load ptr, ptr %5, align 8, !tbaa !5
  store ptr %25, ptr %4, align 8
  store i32 1, ptr %10, align 4
  br label %125

26:                                               ; preds = %3
  %27 = load ptr, ptr %5, align 8, !tbaa !5
  %28 = load i64, ptr %6, align 8, !tbaa !10
  %29 = call ptr @lpSeek(ptr noundef %27, i64 noundef %28)
  store ptr %29, ptr %8, align 8, !tbaa !5
  %30 = icmp eq ptr %29, null
  br i1 %30, label %31, label %33

31:                                               ; preds = %26
  %32 = load ptr, ptr %5, align 8, !tbaa !5
  store ptr %32, ptr %4, align 8
  store i32 1, ptr %10, align 4
  br label %125

33:                                               ; preds = %26
  %34 = load i32, ptr %9, align 4, !tbaa !15
  %35 = icmp ne i32 %34, 65535
  br i1 %35, label %36, label %44

36:                                               ; preds = %33
  %37 = load i64, ptr %6, align 8, !tbaa !10
  %38 = icmp slt i64 %37, 0
  br i1 %38, label %39, label %44

39:                                               ; preds = %36
  %40 = load i32, ptr %9, align 4, !tbaa !15
  %41 = zext i32 %40 to i64
  %42 = load i64, ptr %6, align 8, !tbaa !10
  %43 = add nsw i64 %41, %42
  store i64 %43, ptr %6, align 8, !tbaa !10
  br label %44

44:                                               ; preds = %39, %36, %33
  %45 = load i32, ptr %9, align 4, !tbaa !15
  %46 = icmp ne i32 %45, 65535
  br i1 %46, label %47, label %119

47:                                               ; preds = %44
  %48 = load i32, ptr %9, align 4, !tbaa !15
  %49 = zext i32 %48 to i64
  %50 = load i64, ptr %6, align 8, !tbaa !10
  %51 = sub i64 %49, %50
  %52 = load i64, ptr %7, align 8, !tbaa !10
  %53 = icmp ule i64 %51, %52
  br i1 %53, label %54, label %119

54:                                               ; preds = %47
  %55 = load ptr, ptr %8, align 8, !tbaa !5
  %56 = getelementptr inbounds i8, ptr %55, i64 0
  store i8 -1, ptr %56, align 1, !tbaa !12
  br label %57

57:                                               ; preds = %54
  %58 = load ptr, ptr %8, align 8, !tbaa !5
  %59 = load ptr, ptr %5, align 8, !tbaa !5
  %60 = ptrtoint ptr %58 to i64
  %61 = ptrtoint ptr %59 to i64
  %62 = sub i64 %60, %61
  %63 = add nsw i64 %62, 1
  %64 = and i64 %63, 255
  %65 = trunc i64 %64 to i8
  %66 = load ptr, ptr %5, align 8, !tbaa !5
  %67 = getelementptr inbounds i8, ptr %66, i64 0
  store i8 %65, ptr %67, align 1, !tbaa !12
  %68 = load ptr, ptr %8, align 8, !tbaa !5
  %69 = load ptr, ptr %5, align 8, !tbaa !5
  %70 = ptrtoint ptr %68 to i64
  %71 = ptrtoint ptr %69 to i64
  %72 = sub i64 %70, %71
  %73 = add nsw i64 %72, 1
  %74 = ashr i64 %73, 8
  %75 = and i64 %74, 255
  %76 = trunc i64 %75 to i8
  %77 = load ptr, ptr %5, align 8, !tbaa !5
  %78 = getelementptr inbounds i8, ptr %77, i64 1
  store i8 %76, ptr %78, align 1, !tbaa !12
  %79 = load ptr, ptr %8, align 8, !tbaa !5
  %80 = load ptr, ptr %5, align 8, !tbaa !5
  %81 = ptrtoint ptr %79 to i64
  %82 = ptrtoint ptr %80 to i64
  %83 = sub i64 %81, %82
  %84 = add nsw i64 %83, 1
  %85 = ashr i64 %84, 16
  %86 = and i64 %85, 255
  %87 = trunc i64 %86 to i8
  %88 = load ptr, ptr %5, align 8, !tbaa !5
  %89 = getelementptr inbounds i8, ptr %88, i64 2
  store i8 %87, ptr %89, align 1, !tbaa !12
  %90 = load ptr, ptr %8, align 8, !tbaa !5
  %91 = load ptr, ptr %5, align 8, !tbaa !5
  %92 = ptrtoint ptr %90 to i64
  %93 = ptrtoint ptr %91 to i64
  %94 = sub i64 %92, %93
  %95 = add nsw i64 %94, 1
  %96 = ashr i64 %95, 24
  %97 = and i64 %96, 255
  %98 = trunc i64 %97 to i8
  %99 = load ptr, ptr %5, align 8, !tbaa !5
  %100 = getelementptr inbounds i8, ptr %99, i64 3
  store i8 %98, ptr %100, align 1, !tbaa !12
  br label %101

101:                                              ; preds = %57
  br label %102

102:                                              ; preds = %101
  br label %103

103:                                              ; preds = %102
  %104 = load i64, ptr %6, align 8, !tbaa !10
  %105 = and i64 %104, 255
  %106 = trunc i64 %105 to i8
  %107 = load ptr, ptr %5, align 8, !tbaa !5
  %108 = getelementptr inbounds i8, ptr %107, i64 4
  store i8 %106, ptr %108, align 1, !tbaa !12
  %109 = load i64, ptr %6, align 8, !tbaa !10
  %110 = ashr i64 %109, 8
  %111 = and i64 %110, 255
  %112 = trunc i64 %111 to i8
  %113 = load ptr, ptr %5, align 8, !tbaa !5
  %114 = getelementptr inbounds i8, ptr %113, i64 5
  store i8 %112, ptr %114, align 1, !tbaa !12
  br label %115

115:                                              ; preds = %103
  br label %116

116:                                              ; preds = %115
  %117 = load ptr, ptr %5, align 8, !tbaa !5
  %118 = call ptr @lpShrinkToFit(ptr noundef %117)
  store ptr %118, ptr %5, align 8, !tbaa !5
  br label %123

119:                                              ; preds = %47, %44
  %120 = load ptr, ptr %5, align 8, !tbaa !5
  %121 = load i64, ptr %7, align 8, !tbaa !10
  %122 = call ptr @lpDeleteRangeWithEntry(ptr noundef %120, ptr noundef %8, i64 noundef %121)
  store ptr %122, ptr %5, align 8, !tbaa !5
  br label %123

123:                                              ; preds = %119, %116
  %124 = load ptr, ptr %5, align 8, !tbaa !5
  store ptr %124, ptr %4, align 8
  store i32 1, ptr %10, align 4
  br label %125

125:                                              ; preds = %123, %31, %24
  call void @llvm.lifetime.end.p0(i64 4, ptr %9) #10
  call void @llvm.lifetime.end.p0(i64 8, ptr %8) #10
  %126 = load ptr, ptr %4, align 8
  ret ptr %126
}