; Function Attrs: nounwind uwtable
define dso_local ptr @lpDeleteRange(ptr noundef %0, i64 noundef %1, i64 noundef %2) local_unnamed_addr #3 {
  %4 = alloca ptr, align 8
  call void @llvm.lifetime.start.p0(i64 8, ptr nonnull %4) #20
  %5 = getelementptr inbounds nuw i8, ptr %0, i64 4
  %6 = load i8, ptr %5, align 1, !tbaa !5
  %7 = zext i8 %6 to i32
  %8 = getelementptr inbounds nuw i8, ptr %0, i64 5
  %9 = load i8, ptr %8, align 1, !tbaa !5
  %10 = zext i8 %9 to i32
  %11 = shl nuw nsw i32 %10, 8
  %12 = or disjoint i32 %11, %7
  %13 = icmp eq i64 %2, 0
  br i1 %13, label %lpShrinkToFit.exit, label %14

14:                                               ; preds = %3
  %15 = tail call ptr @lpSeek(ptr noundef nonnull %0, i64 noundef %1)
  store ptr %15, ptr %4, align 8, !tbaa !13
  %16 = icmp eq ptr %15, null
  br i1 %16, label %lpShrinkToFit.exit, label %17

17:                                               ; preds = %14
  %18 = icmp ne i32 %12, 65535
  %19 = icmp slt i64 %1, 0
  %or.cond = and i1 %19, %18
  %20 = zext nneg i32 %12 to i64
  %21 = select i1 %or.cond, i64 %20, i64 0
  %.033 = add nsw i64 %21, %1
  %22 = sub i64 %20, %.033
  %.not = icmp ule i64 %22, %2
  %or.cond39.not = select i1 %18, i1 %.not, i1 false
  br i1 %or.cond39.not, label %23, label %50

23:                                               ; preds = %17
  store i8 -1, ptr %15, align 1, !tbaa !5
  %24 = ptrtoint ptr %15 to i64
  %25 = ptrtoint ptr %0 to i64
  %26 = sub i64 %24, %25
  %27 = trunc i64 %26 to i8
  %28 = add i8 %27, 1
  store i8 %28, ptr %0, align 1, !tbaa !5
  %29 = add nsw i64 %26, 1
  %30 = lshr i64 %29, 8
  %31 = trunc i64 %30 to i8
  %32 = getelementptr inbounds nuw i8, ptr %0, i64 1
  store i8 %31, ptr %32, align 1, !tbaa !5
  %33 = lshr i64 %29, 16
  %34 = trunc i64 %33 to i8
  %35 = getelementptr inbounds nuw i8, ptr %0, i64 2
  store i8 %34, ptr %35, align 1, !tbaa !5
  %36 = lshr i64 %29, 24
  %37 = trunc i64 %36 to i8
  %38 = getelementptr inbounds nuw i8, ptr %0, i64 3
  store i8 %37, ptr %38, align 1, !tbaa !5
  %39 = trunc i64 %.033 to i8
  store i8 %39, ptr %5, align 1, !tbaa !5
  %40 = lshr i64 %.033, 8
  %41 = trunc i64 %40 to i8
  store i8 %41, ptr %8, align 1, !tbaa !5
  %42 = load i16, ptr %0, align 1
  %43 = zext i16 %42 to i64
  %44 = and i64 %29, 4294901760
  %45 = or disjoint i64 %44, %43
  %46 = tail call i64 @je_malloc_usable_size(ptr noundef nonnull %0) #20
  %47 = icmp ult i64 %45, %46
  br i1 %47, label %48, label %lpShrinkToFit.exit

48:                                               ; preds = %23
  %49 = tail call ptr @zrealloc_usable(ptr noundef nonnull %0, i64 noundef %45, ptr noundef null) #20
  br label %lpShrinkToFit.exit

50:                                               ; preds = %17
  %51 = call ptr @lpDeleteRangeWithEntry(ptr noundef nonnull %0, ptr noundef nonnull %4, i64 noundef %2)
  br label %lpShrinkToFit.exit

lpShrinkToFit.exit:                               ; preds = %48, %23, %50, %14, %3
  %.0 = phi ptr [ %0, %3 ], [ %0, %14 ], [ %51, %50 ], [ %49, %48 ], [ %0, %23 ]
  call void @llvm.lifetime.end.p0(i64 8, ptr nonnull %4) #20
  ret ptr %.0
}